target datalayout = "e-m:e-p270:32:32-p271:32:32-p272:64:64-i64:64-i128:128-f80:128-n8:16:32:64-S128"
target triple = "x86_64-pc-linux-gnu"

%struct.RasterS_t = type { ptr, ptr, ptr, %struct.SPPSampleModelS_t, ptr, i32, i32, i32, i32, i32, i32, i32, i32, i32, i32, i32, i32, i32, i32, i32, i32, i32 }
%struct.SPPSampleModelS_t = type { [32 x i32], [32 x i32], [32 x i32], i32, i32 }

; Function Attrs: nounwind uwtable
define internal i32 @checkChannelOffsets(ptr noundef %0, i32 noundef %1) #0 {
  %3 = alloca i32, align 4
  %4 = alloca ptr, align 8
  %5 = alloca i32, align 4
  %6 = alloca i32, align 4
  %7 = alloca i32, align 4
  %8 = alloca i32, align 4
  %9 = alloca i32, align 4
  %10 = alloca i32, align 4
  store ptr %0, ptr %4, align 8
  store i32 %1, ptr %5, align 4
  %11 = load ptr, ptr %4, align 8
  %12 = getelementptr inbounds %struct.RasterS_t, ptr %11, i32 0, i32 18
  %13 = load i32, ptr %12, align 4
  switch i32 %13, label %132 [
    i32 1, label %14
    i32 2, label %131
  ]

14:                                               ; preds = %2
  %15 = load ptr, ptr %4, align 8
  %16 = getelementptr inbounds %struct.RasterS_t, ptr %15, i32 0, i32 6
  %17 = load i32, ptr %16, align 4
  %18 = icmp sgt i32 %17, 0
  br i1 %18, label %19, label %33

19:                                               ; preds = %14
  %20 = load ptr, ptr %4, align 8
  %21 = getelementptr inbounds %struct.RasterS_t, ptr %20, i32 0, i32 15
  %22 = load i32, ptr %21, align 8
  %23 = icmp sge i32 %22, 0
  br i1 %23, label %24, label %33

24:                                               ; preds = %19
  %25 = load ptr, ptr %4, align 8
  %26 = getelementptr inbounds %struct.RasterS_t, ptr %25, i32 0, i32 6
  %27 = load i32, ptr %26, align 4
  %28 = sdiv i32 2147483647, %27
  %29 = load ptr, ptr %4, align 8
  %30 = getelementptr inbounds %struct.RasterS_t, ptr %29, i32 0, i32 15
  %31 = load i32, ptr %30, align 8
  %32 = icmp sgt i32 %28, %31
  br i1 %32, label %34, label %33

33:                                               ; preds = %24, %19, %14
  store i32 0, ptr %3, align 4
  br label %133

34:                                               ; preds = %24
  %35 = load ptr, ptr %4, align 8
  %36 = getelementptr inbounds %struct.RasterS_t, ptr %35, i32 0, i32 5
  %37 = load i32, ptr %36, align 8
  %38 = icmp sgt i32 %37, 0
  br i1 %38, label %39, label %53

39:                                               ; preds = %34
  %40 = load ptr, ptr %4, align 8
  %41 = getelementptr inbounds %struct.RasterS_t, ptr %40, i32 0, i32 16
  %42 = load i32, ptr %41, align 4
  %43 = icmp sge i32 %42, 0
  br i1 %43, label %44, label %53

44:                                               ; preds = %39
  %45 = load ptr, ptr %4, align 8
  %46 = getelementptr inbounds %struct.RasterS_t, ptr %45, i32 0, i32 5
  %47 = load i32, ptr %46, align 8
  %48 = sdiv i32 2147483647, %47
  %49 = load ptr, ptr %4, align 8
  %50 = getelementptr inbounds %struct.RasterS_t, ptr %49, i32 0, i32 16
  %51 = load i32, ptr %50, align 4
  %52 = icmp sgt i32 %48, %51
  br i1 %52, label %54, label %53

53:                                               ; preds = %44, %39, %34
  store i32 0, ptr %3, align 4
  br label %133

54:                                               ; preds = %44
  %55 = load ptr, ptr %4, align 8
  %56 = getelementptr inbounds %struct.RasterS_t, ptr %55, i32 0, i32 6
  %57 = load i32, ptr %56, align 4
  %58 = sub nsw i32 %57, 1
  %59 = load ptr, ptr %4, align 8
  %60 = getelementptr inbounds %struct.RasterS_t, ptr %59, i32 0, i32 15
  %61 = load i32, ptr %60, align 8
  %62 = mul nsw i32 %58, %61
  store i32 %62, ptr %8, align 4
  %63 = load ptr, ptr %4, align 8
  %64 = getelementptr inbounds %struct.RasterS_t, ptr %63, i32 0, i32 5
  %65 = load i32, ptr %64, align 8
  %66 = sub nsw i32 %65, 1
  %67 = load ptr, ptr %4, align 8
  %68 = getelementptr inbounds %struct.RasterS_t, ptr %67, i32 0, i32 16
  %69 = load i32, ptr %68, align 4
  %70 = mul nsw i32 %66, %69
  store i32 %70, ptr %7, align 4
  %71 = load i32, ptr %7, align 4
  %72 = icmp sge i32 %71, 0
  br i1 %72, label %73, label %81

73:                                               ; preds = %54
  %74 = load i32, ptr %8, align 4
  %75 = icmp sge i32 %74, 0
  br i1 %75, label %76, label %81

76:                                               ; preds = %73
  %77 = load i32, ptr %7, align 4
  %78 = sub nsw i32 2147483647, %77
  %79 = load i32, ptr %8, align 4
  %80 = icmp sgt i32 %78, %79
  br i1 %80, label %82, label %81

81:                                               ; preds = %76, %73, %54
  store i32 0, ptr %3, align 4
  br label %133

82:                                               ; preds = %76
  %83 = load i32, ptr %8, align 4
  %84 = load i32, ptr %7, align 4
  %85 = add nsw i32 %84, %83
  store i32 %85, ptr %7, align 4
  store i32 0, ptr %6, align 4
  br label %86

86:                                               ; preds = %127, %82
  %87 = load i32, ptr %6, align 4
  %88 = load ptr, ptr %4, align 8
  %89 = getelementptr inbounds %struct.RasterS_t, ptr %88, i32 0, i32 13
  %90 = load i32, ptr %89, align 8
  %91 = icmp slt i32 %87, %90
  br i1 %91, label %92, label %130

92:                                               ; preds = %86
  %93 = load ptr, ptr %4, align 8
  %94 = getelementptr inbounds %struct.RasterS_t, ptr %93, i32 0, i32 4
  %95 = load ptr, ptr %94, align 8
  %96 = load i32, ptr %6, align 4
  %97 = sext i32 %96 to i64
  %98 = getelementptr inbounds i32, ptr %95, i64 %97
  %99 = load i32, ptr %98, align 4
  store i32 %99, ptr %9, align 4
  %100 = load i32, ptr %7, align 4
  %101 = load i32, ptr %9, align 4
  %102 = add nsw i32 %100, %101
  store i32 %102, ptr %10, align 4
  %103 = load i32, ptr %9, align 4
  %104 = icmp slt i32 %103, 0
  br i1 %104, label %116, label %105

105:                                              ; preds = %92
  %106 = load i32, ptr %7, align 4
  %107 = icmp sge i32 %106, 0
  br i1 %107, label %108, label %116

108:                                              ; preds = %105
  %109 = load i32, ptr %9, align 4
  %110 = icmp sge i32 %109, 0
  br i1 %110, label %111, label %116

111:                                              ; preds = %108
  %112 = load i32, ptr %7, align 4
  %113 = sub nsw i32 2147483647, %112
  %114 = load i32, ptr %9, align 4
  %115 = icmp sgt i32 %113, %114
  br i1 %115, label %117, label %116

116:                                              ; preds = %111, %108, %105, %92
  store i32 0, ptr %3, align 4
  br label %133

117:                                              ; preds = %111
  %118 = load i32, ptr %10, align 4
  %119 = load i32, ptr %7, align 4
  %120 = icmp slt i32 %118, %119
  br i1 %120, label %125, label %121

121:                                              ; preds = %117
  %122 = load i32, ptr %10, align 4
  %123 = load i32, ptr %5, align 4
  %124 = icmp sge i32 %122, %123
  br i1 %124, label %125, label %126

125:                                              ; preds = %121, %117
  store i32 0, ptr %3, align 4
  br label %133

126:                                              ; preds = %121
  br label %127

127:                                              ; preds = %126
  %128 = load i32, ptr %6, align 4
  %129 = add nsw i32 %128, 1
  store i32 %129, ptr %6, align 4
  br label %86, !llvm.loop !16

130:                                              ; preds = %86
  store i32 1, ptr %3, align 4
  br label %133

131:                                              ; preds = %2
  store i32 0, ptr %3, align 4
  br label %133

132:                                              ; preds = %2
  store i32 0, ptr %3, align 4
  br label %133

133:                                              ; preds = %132, %131, %130, %125, %116, %81, %53, %33
  %134 = load i32, ptr %3, align 4
  ret i32 %134
}