; Function Attrs: nofree norecurse nosync nounwind memory(read, inaccessiblemem: none) uwtable
define internal fastcc range(i32 0, 2) i32 @checkChannelOffsets(ptr nocapture noundef readonly %0, i32 noundef %1) unnamed_addr #6 {
  %3 = getelementptr inbounds i8, ptr %0, i64 476
  %4 = load i32, ptr %3, align 4
  %cond = icmp eq i32 %4, 1
  br i1 %cond, label %5, label %.loopexit

5:                                                ; preds = %2
  %6 = getelementptr inbounds i8, ptr %0, i64 428
  %7 = load i32, ptr %6, align 4
  %8 = icmp sgt i32 %7, 0
  br i1 %8, label %9, label %.loopexit

9:                                                ; preds = %5
  %10 = getelementptr inbounds i8, ptr %0, i64 464
  %11 = load i32, ptr %10, align 8
  %12 = icmp sgt i32 %11, -1
  br i1 %12, label %13, label %.loopexit

13:                                               ; preds = %9
  %14 = udiv i32 2147483647, %7
  %15 = icmp ugt i32 %14, %11
  br i1 %15, label %16, label %.loopexit

16:                                               ; preds = %13
  %17 = getelementptr inbounds i8, ptr %0, i64 424
  %18 = load i32, ptr %17, align 8
  %19 = icmp sgt i32 %18, 0
  br i1 %19, label %20, label %.loopexit

20:                                               ; preds = %16
  %21 = getelementptr inbounds i8, ptr %0, i64 468
  %22 = load i32, ptr %21, align 4
  %23 = icmp sgt i32 %22, -1
  br i1 %23, label %24, label %.loopexit

24:                                               ; preds = %20
  %25 = udiv i32 2147483647, %18
  %26 = icmp ugt i32 %25, %22
  br i1 %26, label %27, label %.loopexit

27:                                               ; preds = %24
  %28 = add nsw i32 %7, -1
  %29 = mul nsw i32 %11, %28
  %30 = add nsw i32 %18, -1
  %31 = mul nsw i32 %22, %30
  %32 = sub nuw nsw i32 2147483647, %31
  %33 = icmp ugt i32 %32, %29
  br i1 %33, label %34, label %.loopexit

34:                                               ; preds = %27
  %35 = add nuw nsw i32 %31, %29
  %36 = getelementptr inbounds i8, ptr %0, i64 456
  %37 = load i32, ptr %36, align 8
  %38 = icmp sgt i32 %37, 0
  br i1 %38, label %.lr.ph, label %.loopexit

.lr.ph:                                           ; preds = %34
  %39 = getelementptr inbounds i8, ptr %0, i64 416
  %40 = load ptr, ptr %39, align 8
  %41 = sub nuw nsw i32 2147483647, %35
  %wide.trip.count = zext nneg i32 %37 to i64
  br label %43

42:                                               ; preds = %43
  %indvars.iv.next = add nuw nsw i64 %indvars.iv, 1
  %exitcond.not = icmp eq i64 %indvars.iv.next, %wide.trip.count
  br i1 %exitcond.not, label %.loopexit, label %43, !llvm.loop !16

43:                                               ; preds = %.lr.ph, %42
  %indvars.iv = phi i64 [ 0, %.lr.ph ], [ %indvars.iv.next, %42 ]
  %44 = getelementptr inbounds i32, ptr %40, i64 %indvars.iv
  %45 = load i32, ptr %44, align 4
  %46 = add nsw i32 %45, %35
  %47 = icmp sgt i32 %45, -1
  %48 = icmp sgt i32 %41, %45
  %or.cond = select i1 %47, i1 %48, i1 false
  %.not = icmp slt i32 %46, %1
  %or.cond51 = select i1 %or.cond, i1 %.not, i1 false
  br i1 %or.cond51, label %42, label %.loopexit

.loopexit:                                        ; preds = %43, %42, %34, %2, %27, %16, %20, %24, %5, %9, %13
  %.0 = phi i32 [ 0, %13 ], [ 0, %9 ], [ 0, %5 ], [ 0, %24 ], [ 0, %20 ], [ 0, %16 ], [ 0, %27 ], [ 0, %2 ], [ 1, %34 ], [ 0, %43 ], [ 1, %42 ]
  ret i32 %.0
}